; Function Attrs: mustprogress nofree norecurse nosync nounwind willreturn memory(read, inaccessiblemem: none) uwtable
define { ptr, i32 } @_ZN10OpenSubdiv6v3_6_03Far10PatchTable13getFVarValuesEi(ptr nocapture noundef nonnull readonly align 8 dereferenceable(273) %0, i32 noundef %1) local_unnamed_addr #6 align 2 {
  %3 = getelementptr inbounds nuw i8, ptr %0, i64 176
  %4 = sext i32 %1 to i64
  %5 = load ptr, ptr %3, align 8
  %6 = getelementptr inbounds %"struct.OpenSubdiv::v3_6_0::Far::PatchTable::FVarPatchChannel", ptr %5, i64 %4, i32 4
  %7 = load ptr, ptr %6, align 8
  %8 = getelementptr inbounds nuw i8, ptr %6, i64 8
  %9 = load ptr, ptr %8, align 8
  %10 = ptrtoint ptr %9 to i64
  %11 = ptrtoint ptr %7 to i64
  %12 = sub i64 %10, %11
  %13 = lshr exact i64 %12, 2
  %14 = trunc i64 %13 to i32
  %.fca.0.insert = insertvalue { ptr, i32 } poison, ptr %7, 0
  %.fca.1.insert = insertvalue { ptr, i32 } %.fca.0.insert, i32 %14, 1
  ret { ptr, i32 } %.fca.1.insert
}